; Function Attrs: nounwind uwtable
define void @Gli_ManSetPiRandom(ptr noundef readonly captures(none) %0, float noundef %1) local_unnamed_addr #11 {
  %3 = getelementptr inbounds nuw i8, ptr %0, i64 16
  %4 = load ptr, ptr %3, align 8, !tbaa !17
  %5 = getelementptr inbounds nuw i8, ptr %4, i64 4
  store i32 0, ptr %5, align 4, !tbaa !11
  %6 = load ptr, ptr %0, align 8, !tbaa !15
  %7 = getelementptr i8, ptr %6, i64 4
  %.val1517 = load i32, ptr %7, align 4, !tbaa !11
  %8 = icmp sgt i32 %.val1517, 0
  br i1 %8, label %.lr.ph, label %.critedge

.lr.ph:                                           ; preds = %2
  %9 = getelementptr i8, ptr %0, i64 64
  br label %10

10:                                               ; preds = %.lr.ph, %66
  %indvars.iv = phi i64 [ 0, %.lr.ph ], [ %indvars.iv.next, %66 ]
  %11 = phi ptr [ %6, %.lr.ph ], [ %67, %66 ]
  %12 = getelementptr i8, ptr %11, i64 8
  %.val16 = load ptr, ptr %12, align 8, !tbaa !14
  %13 = getelementptr inbounds nuw i32, ptr %.val16, i64 %indvars.iv
  %14 = load i32, ptr %13, align 4, !tbaa !26
  %.val = load ptr, ptr %9, align 8, !tbaa !21
  %15 = sext i32 %14 to i64
  %16 = getelementptr inbounds i32, ptr %.val, i64 %15
  %.not = icmp eq ptr %.val, null
  br i1 %.not, label %.critedge, label %17

17:                                               ; preds = %10
  %18 = tail call i32 @Gia_ManRandom(i32 noundef 0) #24
  %19 = and i32 %18, 65535
  %20 = uitofp nneg i32 %19 to float
  %21 = fmul float %20, 0x3EF0000000000000
  %22 = fcmp olt float %21, %1
  br i1 %22, label %23, label %66

23:                                               ; preds = %17
  %24 = load ptr, ptr %3, align 8, !tbaa !17
  %25 = getelementptr inbounds nuw i8, ptr %16, i64 4
  %26 = load i32, ptr %25, align 4, !tbaa !23
  %27 = getelementptr inbounds nuw i8, ptr %24, i64 4
  %28 = load i32, ptr %27, align 4, !tbaa !11
  %29 = load i32, ptr %24, align 8, !tbaa !13
  %30 = icmp eq i32 %28, %29
  br i1 %30, label %31, label %.Vec_IntGrow.exit10_crit_edge.i

.Vec_IntGrow.exit10_crit_edge.i:                  ; preds = %23
  %.phi.trans.insert.i = getelementptr inbounds nuw i8, ptr %24, i64 8
  %.pre.i = load ptr, ptr %.phi.trans.insert.i, align 8, !tbaa !14
  br label %Vec_IntPush.exit

31:                                               ; preds = %23
  %32 = icmp slt i32 %28, 16
  br i1 %32, label %33, label %41

33:                                               ; preds = %31
  %34 = getelementptr inbounds nuw i8, ptr %24, i64 8
  %35 = load ptr, ptr %34, align 8, !tbaa !14
  %.not9.i.i = icmp eq ptr %35, null
  br i1 %.not9.i.i, label %38, label %36

36:                                               ; preds = %33
  %37 = tail call dereferenceable_or_null(64) ptr @realloc(ptr noundef nonnull %35, i64 noundef 64) #25
  br label %Vec_IntGrow.exit.i

38:                                               ; preds = %33
  %39 = tail call noalias dereferenceable_or_null(64) ptr @malloc(i64 noundef 64) #23
  br label %Vec_IntGrow.exit.i

Vec_IntGrow.exit.i:                               ; preds = %38, %36
  %40 = phi ptr [ %37, %36 ], [ %39, %38 ]
  store ptr %40, ptr %34, align 8, !tbaa !14
  store i32 16, ptr %24, align 8, !tbaa !13
  br label %Vec_IntPush.exit

41:                                               ; preds = %31
  %42 = shl nuw nsw i32 %28, 1
  %43 = getelementptr inbounds nuw i8, ptr %24, i64 8
  %44 = load ptr, ptr %43, align 8, !tbaa !14
  %.not9.i9.i = icmp eq ptr %44, null
  %45 = zext nneg i32 %42 to i64
  %46 = shl nuw nsw i64 %45, 2
  br i1 %.not9.i9.i, label %49, label %47

47:                                               ; preds = %41
  %48 = tail call ptr @realloc(ptr noundef nonnull %44, i64 noundef %46) #25
  br label %51

49:                                               ; preds = %41
  %50 = tail call noalias ptr @malloc(i64 noundef %46) #23
  br label %51

51:                                               ; preds = %49, %47
  %52 = phi ptr [ %48, %47 ], [ %50, %49 ]
  store ptr %52, ptr %43, align 8, !tbaa !14
  store i32 %42, ptr %24, align 8, !tbaa !13
  br label %Vec_IntPush.exit

Vec_IntPush.exit:                                 ; preds = %.Vec_IntGrow.exit10_crit_edge.i, %Vec_IntGrow.exit.i, %51
  %53 = phi ptr [ %.pre.i, %.Vec_IntGrow.exit10_crit_edge.i ], [ %52, %51 ], [ %40, %Vec_IntGrow.exit.i ]
  %54 = load i32, ptr %27, align 4, !tbaa !11
  %55 = add nsw i32 %54, 1
  store i32 %55, ptr %27, align 4, !tbaa !11
  %56 = sext i32 %54 to i64
  %57 = getelementptr inbounds i32, ptr %53, i64 %56
  store i32 %26, ptr %57, align 4, !tbaa !26
  %58 = load i32, ptr %16, align 8
  %59 = xor i32 %58, 6
  store i32 %59, ptr %16, align 8
  %60 = getelementptr inbounds nuw i8, ptr %16, i64 20
  %61 = load i32, ptr %60, align 4, !tbaa !31
  %62 = add nsw i32 %61, 1
  store i32 %62, ptr %60, align 4, !tbaa !31
  %63 = getelementptr inbounds nuw i8, ptr %16, i64 24
  %64 = load i32, ptr %63, align 8, !tbaa !31
  %65 = add nsw i32 %64, 1
  store i32 %65, ptr %63, align 8, !tbaa !31
  br label %66

66:                                               ; preds = %17, %Vec_IntPush.exit
  %indvars.iv.next = add nuw nsw i64 %indvars.iv, 1
  %67 = load ptr, ptr %0, align 8, !tbaa !15
  %68 = getelementptr i8, ptr %67, i64 4
  %.val15 = load i32, ptr %68, align 4, !tbaa !11
  %69 = sext i32 %.val15 to i64
  %70 = icmp slt i64 %indvars.iv.next, %69
  br i1 %70, label %10, label %.critedge, !llvm.loop !38

.critedge:                                        ; preds = %10, %66, %2
  ret void
}